target datalayout = "e-m:e-p270:32:32-p271:32:32-p272:64:64-i64:64-i128:128-f80:128-n8:16:32:64-S128"
target triple = "x86_64-pc-linux-gnu"

@_ZN19AbstractInterpreter12_entry_tableE = external global [40 x ptr], align 16

; Function Attrs: mustprogress nounwind uwtable
define linkonce_odr hidden noundef ptr @_ZN19AbstractInterpreter14entry_for_kindENS_10MethodKindE(i32 noundef %0) #1 comdat align 2 {
  %2 = alloca i32, align 4
  store i32 %0, ptr %2, align 4
  %3 = load i32, ptr %2, align 4
  %4 = sext i32 %3 to i64
  %5 = getelementptr inbounds [40 x ptr], ptr @_ZN19AbstractInterpreter12_entry_tableE, i64 0, i64 %4
  %6 = load ptr, ptr %5, align 8
  ret ptr %6
}

; Function Attrs: mustprogress nounwind uwtable
define hidden noundef ptr @_ZN28TemplateInterpreterGenerator21generate_method_entryEN19AbstractInterpreter10MethodKindEb(ptr noundef nonnull align 8 dereferenceable(24) %0, i32 noundef %1, i1 noundef zeroext %2) #1 align 2 {
  %4 = alloca ptr, align 8
  %5 = alloca ptr, align 8
  %6 = alloca i32, align 4
  %7 = alloca i8, align 1
  %8 = alloca i8, align 1
  %9 = alloca ptr, align 8
  store ptr %0, ptr %5, align 8
  store i32 %1, ptr %6, align 4
  %10 = zext i1 %2 to i8
  store i8 %10, ptr %7, align 1
  %11 = load ptr, ptr %5, align 8
  store i8 0, ptr %8, align 1
  store ptr null, ptr %9, align 8
  %12 = load i32, ptr %6, align 4
  switch i32 %12, label %22 [
    i32 0, label %13
    i32 1, label %14
    i32 2, label %15
    i32 3, label %16
    i32 4, label %17
    i32 5, label %18
    i32 6, label %19
    i32 7, label %20
  ]

13:                                               ; preds = %3
  br label %25

14:                                               ; preds = %3
  store i8 1, ptr %8, align 1
  br label %25

15:                                               ; preds = %3
  br label %25

16:                                               ; preds = %3
  store i8 1, ptr %8, align 1
  br label %25

17:                                               ; preds = %3
  br label %25

18:                                               ; preds = %3
  br label %25

19:                                               ; preds = %3
  br label %25

20:                                               ; preds = %3
  %21 = call noundef ptr @_ZN28TemplateInterpreterGenerator23generate_abstract_entryEv(ptr noundef nonnull align 8 dereferenceable(24) %11)
  store ptr %21, ptr %9, align 8
  br label %25

22:                                               ; preds = %3
  %23 = load i32, ptr %6, align 4
  %24 = call noundef ptr @_ZN28TemplateInterpreterGenerator24generate_intrinsic_entryEN19AbstractInterpreter10MethodKindE(ptr noundef nonnull align 8 dereferenceable(24) %11, i32 noundef %23)
  store ptr %24, ptr %9, align 8
  br label %25

25:                                               ; preds = %22, %20, %19, %18, %17, %16, %15, %14, %13
  %26 = load ptr, ptr %9, align 8
  %27 = icmp ne ptr %26, null
  br i1 %27, label %28, label %30

28:                                               ; preds = %25
  %29 = load ptr, ptr %9, align 8
  store ptr %29, ptr %4, align 8
  br label %59

30:                                               ; preds = %25
  %31 = load i8, ptr %7, align 1
  %32 = trunc i8 %31 to i1
  br i1 %32, label %33, label %45

33:                                               ; preds = %30
  %34 = load i8, ptr %8, align 1
  %35 = trunc i8 %34 to i1
  %36 = select i1 %35, i32 3, i32 2
  %37 = call noundef ptr @_ZN19AbstractInterpreter14entry_for_kindENS_10MethodKindE(i32 noundef %36)
  store ptr %37, ptr %9, align 8
  %38 = load ptr, ptr %9, align 8
  %39 = icmp eq ptr %38, null
  br i1 %39, label %40, label %44

40:                                               ; preds = %33
  %41 = load i8, ptr %8, align 1
  %42 = trunc i8 %41 to i1
  %43 = call noundef ptr @_ZN28TemplateInterpreterGenerator21generate_native_entryEb(ptr noundef nonnull align 8 dereferenceable(24) %11, i1 noundef zeroext %42)
  store ptr %43, ptr %9, align 8
  br label %44

44:                                               ; preds = %40, %33
  br label %57

45:                                               ; preds = %30
  %46 = load i8, ptr %8, align 1
  %47 = trunc i8 %46 to i1
  %48 = select i1 %47, i32 1, i32 0
  %49 = call noundef ptr @_ZN19AbstractInterpreter14entry_for_kindENS_10MethodKindE(i32 noundef %48)
  store ptr %49, ptr %9, align 8
  %50 = load ptr, ptr %9, align 8
  %51 = icmp eq ptr %50, null
  br i1 %51, label %52, label %56

52:                                               ; preds = %45
  %53 = load i8, ptr %8, align 1
  %54 = trunc i8 %53 to i1
  %55 = call noundef ptr @_ZN28TemplateInterpreterGenerator21generate_normal_entryEb(ptr noundef nonnull align 8 dereferenceable(24) %11, i1 noundef zeroext %54)
  store ptr %55, ptr %9, align 8
  br label %56

56:                                               ; preds = %52, %45
  br label %57

57:                                               ; preds = %56, %44
  %58 = load ptr, ptr %9, align 8
  store ptr %58, ptr %4, align 8
  br label %59

59:                                               ; preds = %57, %28
  %60 = load ptr, ptr %4, align 8
  ret ptr %60
}